target datalayout = "e-m:e-p270:32:32-p271:32:32-p272:64:64-i64:64-i128:128-f80:128-n8:16:32:64-S128"
target triple = "x86_64-pc-linux-gnu"

@.str.152 = private unnamed_addr constant [43 x i8] c"likely_mso_stream: call to lseek() failed\0A\00", align 1
@.str.153 = private unnamed_addr constant [43 x i8] c"likely_mso_stream: reading from fd failed\0A\00", align 1

; Function Attrs: nounwind uwtable
define internal i32 @likely_mso_stream(i32 noundef %0) #0 {
  %2 = alloca i32, align 4
  %3 = alloca i32, align 4
  %4 = alloca i64, align 8
  %5 = alloca [2 x i8], align 1
  store i32 %0, ptr %3, align 4
  %6 = load i32, ptr %3, align 4
  %7 = call i64 @lseek(i32 noundef %6, i64 noundef 0, i32 noundef 2) #10
  store i64 %7, ptr %4, align 8
  %8 = load i64, ptr %4, align 8
  %9 = icmp eq i64 %8, -1
  br i1 %9, label %10, label %11

10:                                               ; preds = %1
  call void (ptr, ...) @cli_dbgmsg(ptr noundef @.str.152)
  store i32 0, ptr %2, align 4
  br label %39

11:                                               ; preds = %1
  %12 = load i64, ptr %4, align 8
  %13 = icmp slt i64 %12, 6
  br i1 %13, label %14, label %15

14:                                               ; preds = %11
  store i32 0, ptr %2, align 4
  br label %39

15:                                               ; preds = %11
  br label %16

16:                                               ; preds = %15
  %17 = load i32, ptr %3, align 4
  %18 = call i64 @lseek(i32 noundef %17, i64 noundef 4, i32 noundef 0) #10
  %19 = icmp eq i64 %18, -1
  br i1 %19, label %20, label %21

20:                                               ; preds = %16
  call void (ptr, ...) @cli_dbgmsg(ptr noundef @.str.152)
  store i32 0, ptr %2, align 4
  br label %39

21:                                               ; preds = %16
  %22 = load i32, ptr %3, align 4
  %23 = getelementptr inbounds [2 x i8], ptr %5, i64 0, i64 0
  %24 = call i64 @cli_readn(i32 noundef %22, ptr noundef %23, i64 noundef 2)
  %25 = icmp ne i64 %24, 2
  br i1 %25, label %26, label %27

26:                                               ; preds = %21
  call void (ptr, ...) @cli_dbgmsg(ptr noundef @.str.153)
  store i32 0, ptr %2, align 4
  br label %39

27:                                               ; preds = %21
  %28 = getelementptr inbounds [2 x i8], ptr %5, i64 0, i64 0
  %29 = load i8, ptr %28, align 1
  %30 = zext i8 %29 to i32
  %31 = icmp eq i32 %30, 120
  br i1 %31, label %32, label %38

32:                                               ; preds = %27
  %33 = getelementptr inbounds [2 x i8], ptr %5, i64 0, i64 1
  %34 = load i8, ptr %33, align 1
  %35 = zext i8 %34 to i32
  %36 = icmp eq i32 %35, 156
  br i1 %36, label %37, label %38

37:                                               ; preds = %32
  store i32 1, ptr %2, align 4
  br label %39

38:                                               ; preds = %32, %27
  store i32 0, ptr %2, align 4
  br label %39

39:                                               ; preds = %38, %37, %26, %20, %14, %10
  %40 = load i32, ptr %2, align 4
  ret i32 %40
}