; Function Attrs: nounwind uwtable
define internal fastcc i32 @likely_mso_stream(i32 noundef %0) unnamed_addr #2 {
  %2 = alloca [2 x i8], align 1
  %3 = tail call i64 @lseek(i32 noundef %0, i64 noundef 0, i32 noundef 2) #21
  %4 = icmp eq i64 %3, -1
  br i1 %4, label %5, label %6

5:                                                ; preds = %1
  tail call void (ptr, ...) @cli_dbgmsg(ptr noundef nonnull @.str.152) #21
  br label %21

6:                                                ; preds = %1
  %7 = icmp slt i64 %3, 6
  br i1 %7, label %21, label %8

8:                                                ; preds = %6
  %9 = tail call i64 @lseek(i32 noundef %0, i64 noundef 4, i32 noundef 0) #21
  %10 = icmp eq i64 %9, -1
  br i1 %10, label %11, label %12

11:                                               ; preds = %8
  tail call void (ptr, ...) @cli_dbgmsg(ptr noundef nonnull @.str.152) #21
  br label %21

12:                                               ; preds = %8
  %13 = call i64 @cli_readn(i32 noundef %0, ptr noundef nonnull %2, i64 noundef 2) #21
  %.not = icmp eq i64 %13, 2
  br i1 %.not, label %15, label %14

14:                                               ; preds = %12
  call void (ptr, ...) @cli_dbgmsg(ptr noundef nonnull @.str.153) #21
  br label %21

15:                                               ; preds = %12
  %16 = load i8, ptr %2, align 1
  %17 = icmp eq i8 %16, 120
  %18 = getelementptr inbounds i8, ptr %2, i64 1
  %19 = load i8, ptr %18, align 1
  %20 = icmp eq i8 %19, -100
  %or.cond = select i1 %17, i1 %20, i1 false
  %. = zext i1 %or.cond to i32
  br label %21

21:                                               ; preds = %15, %6, %14, %11, %5
  %.0 = phi i32 [ 0, %5 ], [ 0, %11 ], [ 0, %14 ], [ 0, %6 ], [ %., %15 ]
  ret i32 %.0
}